target datalayout = "e-m:e-p270:32:32-p271:32:32-p272:64:64-i64:64-i128:128-f80:128-n8:16:32:64-S128"
target triple = "x86_64-pc-linux-gnu"

%struct.bio_msg_st = type { ptr, i64, ptr, ptr, i64 }

@.str.18 = private unnamed_addr constant [30 x i8] c"../openssl/test/threadstest.c\00", align 1
@global_lock = internal global ptr null, align 8
@multi_success = internal global i32 0, align 4
@multi_libctx = internal global ptr null, align 8
@.str.76 = private unnamed_addr constant [2 x i8] c"1\00", align 1
@multi_bio1 = internal global ptr null, align 8
@multi_bio2 = internal global ptr null, align 8
@.str.161 = private unnamed_addr constant [40 x i8] c"RAND_bytes_ex(multi_libctx, &ch, 1, 64)\00", align 1

; Function Attrs: nounwind uwtable
define internal void @multi_set_success(i32 noundef %0) #0 {
  %2 = alloca i32, align 4
  store i32 %0, ptr %2, align 4, !tbaa !4
  %3 = load ptr, ptr @global_lock, align 8, !tbaa !13
  %4 = call i32 @CRYPTO_THREAD_write_lock(ptr noundef %3)
  %5 = icmp eq i32 %4, 0
  br i1 %5, label %6, label %8

6:                                                ; preds = %1
  %7 = load i32, ptr %2, align 4, !tbaa !4
  store i32 %7, ptr @multi_success, align 4, !tbaa !4
  br label %12

8:                                                ; preds = %1
  %9 = load i32, ptr %2, align 4, !tbaa !4
  store i32 %9, ptr @multi_success, align 4, !tbaa !4
  %10 = load ptr, ptr @global_lock, align 8, !tbaa !13
  %11 = call i32 @CRYPTO_THREAD_unlock(ptr noundef %10)
  br label %12

12:                                               ; preds = %8, %6
  ret void
}

; Function Attrs: nounwind uwtable
define internal void @test_bio_dgram_pair_worker() #0 {
  %1 = alloca i32, align 4
  %2 = alloca i32, align 4
  %3 = alloca i8, align 1
  %4 = alloca [64 x i8], align 16
  %5 = alloca %struct.bio_msg_st, align 8
  %6 = alloca i64, align 8
  call void @llvm.lifetime.start.p0(i64 4, ptr %1) #10
  call void @llvm.lifetime.start.p0(i64 4, ptr %2) #10
  store i32 0, ptr %2, align 4, !tbaa !4
  call void @llvm.lifetime.start.p0(i64 1, ptr %3) #10
  store i8 0, ptr %3, align 1, !tbaa !64
  call void @llvm.lifetime.start.p0(i64 64, ptr %4) #10
  call void @llvm.lifetime.start.p0(i64 40, ptr %5) #10
  call void @llvm.memset.p0.i64(ptr align 8 %5, i8 0, i64 40, i1 false)
  call void @llvm.lifetime.start.p0(i64 8, ptr %6) #10
  store i64 0, ptr %6, align 8, !tbaa !14
  %7 = load ptr, ptr @multi_libctx, align 8, !tbaa !20
  %8 = call i32 @RAND_bytes_ex(ptr noundef %7, ptr noundef %3, i64 noundef 1, i32 noundef 64)
  %9 = call i32 @test_int_eq(ptr noundef @.str.18, i32 noundef 1176, ptr noundef @.str.161, ptr noundef @.str.76, i32 noundef %8, i32 noundef 1)
  %10 = icmp ne i32 %9, 0
  br i1 %10, label %12, label %11

11:                                               ; preds = %0
  br label %45

12:                                               ; preds = %0
  %13 = getelementptr inbounds [64 x i8], ptr %4, i64 0, i64 0
  %14 = getelementptr inbounds nuw %struct.bio_msg_st, ptr %5, i32 0, i32 0
  store ptr %13, ptr %14, align 8, !tbaa !65
  %15 = getelementptr inbounds nuw %struct.bio_msg_st, ptr %5, i32 0, i32 1
  store i64 64, ptr %15, align 8, !tbaa !68
  %16 = load i8, ptr %3, align 1, !tbaa !64
  %17 = zext i8 %16 to i32
  %18 = and i32 %17, 2
  %19 = icmp ne i32 %18, 0
  br i1 %19, label %20, label %32

20:                                               ; preds = %12
  %21 = load i8, ptr %3, align 1, !tbaa !64
  %22 = zext i8 %21 to i32
  %23 = and i32 %22, 1
  %24 = icmp ne i32 %23, 0
  br i1 %24, label %25, label %27

25:                                               ; preds = %20
  %26 = load ptr, ptr @multi_bio2, align 8, !tbaa !26
  br label %29

27:                                               ; preds = %20
  %28 = load ptr, ptr @multi_bio1, align 8, !tbaa !26
  br label %29

29:                                               ; preds = %27, %25
  %30 = phi ptr [ %26, %25 ], [ %28, %27 ]
  %31 = call i32 @BIO_sendmmsg(ptr noundef %30, ptr noundef %5, i64 noundef 40, i64 noundef 1, i64 noundef 0, ptr noundef %6)
  store i32 %31, ptr %1, align 4, !tbaa !4
  br label %44

32:                                               ; preds = %12
  %33 = load i8, ptr %3, align 1, !tbaa !64
  %34 = zext i8 %33 to i32
  %35 = and i32 %34, 1
  %36 = icmp ne i32 %35, 0
  br i1 %36, label %37, label %39

37:                                               ; preds = %32
  %38 = load ptr, ptr @multi_bio2, align 8, !tbaa !26
  br label %41

39:                                               ; preds = %32
  %40 = load ptr, ptr @multi_bio1, align 8, !tbaa !26
  br label %41

41:                                               ; preds = %39, %37
  %42 = phi ptr [ %38, %37 ], [ %40, %39 ]
  %43 = call i32 @BIO_recvmmsg(ptr noundef %42, ptr noundef %5, i64 noundef 40, i64 noundef 1, i64 noundef 0, ptr noundef %6)
  store i32 %43, ptr %1, align 4, !tbaa !4
  br label %44

44:                                               ; preds = %41, %29
  store i32 1, ptr %2, align 4, !tbaa !4
  br label %45

45:                                               ; preds = %44, %11
  %46 = load i32, ptr %2, align 4, !tbaa !4
  %47 = icmp eq i32 %46, 0
  br i1 %47, label %48, label %49

48:                                               ; preds = %45
  call void @multi_set_success(i32 noundef 0)
  br label %49

49:                                               ; preds = %48, %45
  call void @llvm.lifetime.end.p0(i64 8, ptr %6) #10
  call void @llvm.lifetime.end.p0(i64 40, ptr %5) #10
  call void @llvm.lifetime.end.p0(i64 64, ptr %4) #10
  call void @llvm.lifetime.end.p0(i64 1, ptr %3) #10
  call void @llvm.lifetime.end.p0(i64 4, ptr %2) #10
  call void @llvm.lifetime.end.p0(i64 4, ptr %1) #10
  ret void
}