; Function Attrs: nounwind uwtable
define internal void @test_bio_dgram_pair_worker() #1 {
  %1 = alloca i8, align 1
  %2 = alloca [64 x i8], align 16
  %3 = alloca %struct.bio_msg_st, align 8
  %4 = alloca i64, align 8
  call void @llvm.lifetime.start.p0(i64 1, ptr nonnull %1) #11
  store i8 0, ptr %1, align 1, !tbaa !41
  call void @llvm.lifetime.start.p0(i64 64, ptr nonnull %2) #11
  call void @llvm.lifetime.start.p0(i64 40, ptr nonnull %3) #11
  %5 = getelementptr inbounds nuw i8, ptr %3, i64 16
  call void @llvm.memset.p0.i64(ptr noundef nonnull align 8 dereferenceable(40) %5, i8 0, i64 24, i1 false)
  call void @llvm.lifetime.start.p0(i64 8, ptr nonnull %4) #11
  store i64 0, ptr %4, align 8, !tbaa !12
  %6 = load ptr, ptr @multi_libctx, align 8, !tbaa !16
  %7 = call i32 @RAND_bytes_ex(ptr noundef %6, ptr noundef nonnull %1, i64 noundef 1, i32 noundef 64) #11
  %8 = call i32 @test_int_eq(ptr noundef nonnull @.str.18, i32 noundef 1176, ptr noundef nonnull @.str.161, ptr noundef nonnull @.str.76, i32 noundef %7, i32 noundef 1) #11
  %.not = icmp eq i32 %8, 0
  br i1 %.not, label %.critedge, label %9

9:                                                ; preds = %0
  store ptr %2, ptr %3, align 8, !tbaa !42
  %10 = getelementptr inbounds nuw i8, ptr %3, i64 8
  store i64 64, ptr %10, align 8, !tbaa !45
  %11 = load i8, ptr %1, align 1, !tbaa !41
  %12 = zext i8 %11 to i32
  %13 = and i32 %12, 2
  %.not1 = icmp eq i32 %13, 0
  %14 = and i32 %12, 1
  %.not2 = icmp eq i32 %14, 0
  %15 = load ptr, ptr @multi_bio2, align 8
  %16 = load ptr, ptr @multi_bio1, align 8
  %17 = select i1 %.not2, ptr %16, ptr %15
  br i1 %.not1, label %20, label %18

18:                                               ; preds = %9
  %19 = call i32 @BIO_sendmmsg(ptr noundef %17, ptr noundef nonnull %3, i64 noundef 40, i64 noundef 1, i64 noundef 0, ptr noundef nonnull %4) #11
  br label %multi_set_success.exit

20:                                               ; preds = %9
  %21 = call i32 @BIO_recvmmsg(ptr noundef %17, ptr noundef nonnull %3, i64 noundef 40, i64 noundef 1, i64 noundef 0, ptr noundef nonnull %4) #11
  br label %multi_set_success.exit

.critedge:                                        ; preds = %0
  %22 = load ptr, ptr @global_lock, align 8, !tbaa !11
  %23 = call i32 @CRYPTO_THREAD_write_lock(ptr noundef %22) #11
  %24 = icmp eq i32 %23, 0
  store i1 false, ptr @multi_success, align 4
  br i1 %24, label %multi_set_success.exit, label %25

25:                                               ; preds = %.critedge
  %26 = load ptr, ptr @global_lock, align 8, !tbaa !11
  %27 = call i32 @CRYPTO_THREAD_unlock(ptr noundef %26) #11
  br label %multi_set_success.exit

multi_set_success.exit:                           ; preds = %25, %.critedge, %20, %18
  call void @llvm.lifetime.end.p0(i64 8, ptr nonnull %4) #11
  call void @llvm.lifetime.end.p0(i64 40, ptr nonnull %3) #11
  call void @llvm.lifetime.end.p0(i64 64, ptr nonnull %2) #11
  call void @llvm.lifetime.end.p0(i64 1, ptr nonnull %1) #11
  ret void
}